; Function Attrs: nounwind uwtable
define dso_local range(i32 0, 9203) i32 @data_get_bool_converted(ptr noundef %0, ptr noundef captures(address_is_null) %1) local_unnamed_addr #0 {
  %3 = icmp ne ptr %0, null
  %4 = icmp ne ptr %1, null
  %or.cond = and i1 %3, %4
  br i1 %or.cond, label %5, label %data_set_bool.exit

5:                                                ; preds = %2
  %6 = tail call i32 @data_copy_bool_converted(ptr noundef nonnull %0, ptr noundef nonnull %1)
  %.not = icmp eq i32 %6, 0
  br i1 %.not, label %7, label %data_set_bool.exit

7:                                                ; preds = %5
  %8 = load i8, ptr %1, align 1, !range !19, !noundef !20
  %9 = trunc nuw i8 %8 to i1
  tail call fastcc void @_release(ptr noundef nonnull %0)
  %10 = getelementptr inbounds nuw i8, ptr %0, i64 4
  store i32 65288, ptr %10, align 4
  %11 = getelementptr inbounds nuw i8, ptr %0, i64 8
  store i8 %8, ptr %11, align 8
  %12 = load i64, ptr getelementptr inbounds nuw (i8, ptr @slurm_conf, i64 320), align 8
  %13 = and i64 %12, 256
  %.not10.i = icmp eq i64 %13, 0
  br i1 %.not10.i, label %data_set_bool.exit, label %14

14:                                               ; preds = %7
  %15 = tail call i32 @get_log_level() #16
  %16 = icmp sgt i32 %15, 3
  br i1 %16, label %17, label %data_set_bool.exit

17:                                               ; preds = %14
  %18 = select i1 %9, ptr @.str.6, ptr @.str.7
  tail call void (i32, ptr, ...) @log_var(i32 noundef 4, ptr noundef nonnull @.str.5, ptr noundef nonnull @__func__.data_set_bool, ptr noundef nonnull %0, ptr noundef nonnull %18) #16
  br label %data_set_bool.exit

data_set_bool.exit:                               ; preds = %17, %14, %7, %5, %2
  %.0 = phi i32 [ 9201, %2 ], [ %6, %5 ], [ 0, %7 ], [ 0, %14 ], [ 0, %17 ]
  ret i32 %.0
}